; Function Attrs: nounwind uwtable
define noundef ptr @ggml_view_4d(ptr noundef captures(none) %0, ptr noundef %1, i64 noundef %2, i64 noundef %3, i64 noundef %4, i64 noundef %5, i64 noundef %6, i64 noundef %7, i64 noundef %8, i64 noundef %9) local_unnamed_addr #4 {
  %11 = alloca [4 x i64], align 16
  call void @llvm.lifetime.start.p0(i64 32, ptr nonnull %11) #42
  store i64 %2, ptr %11, align 16, !tbaa !39
  %12 = getelementptr inbounds nuw i8, ptr %11, i64 8
  store i64 %3, ptr %12, align 8, !tbaa !39
  %13 = getelementptr inbounds nuw i8, ptr %11, i64 16
  store i64 %4, ptr %13, align 16, !tbaa !39
  %14 = getelementptr inbounds nuw i8, ptr %11, i64 24
  store i64 %5, ptr %14, align 8, !tbaa !39
  %15 = load i32, ptr %1, align 8, !tbaa !40
  %16 = call fastcc ptr @ggml_new_tensor_impl(ptr noundef %0, i32 noundef %15, i32 noundef 4, ptr noundef nonnull readonly %11, ptr noundef nonnull %1, i64 noundef %9)
  %17 = getelementptr inbounds nuw i8, ptr %1, i64 256
  %18 = tail call ptr (ptr, ptr, ...) @ggml_format_name(ptr noundef %16, ptr noundef nonnull @.str.23, ptr noundef nonnull %17)
  %.not.i.i = icmp eq ptr %16, null
  br i1 %.not.i.i, label %19, label %ggml_view_impl.exit

19:                                               ; preds = %10
  tail call void (ptr, i32, ptr, ...) @ggml_abort(ptr noundef nonnull @.str.463, i32 noundef 112, ptr noundef nonnull @.str.13, ptr noundef nonnull @.str.464) #47
  unreachable

ggml_view_impl.exit:                              ; preds = %10
  %20 = getelementptr inbounds nuw i8, ptr %16, i64 84
  store i64 %9, ptr %20, align 4
  %21 = getelementptr inbounds nuw i8, ptr %16, i64 80
  store i32 34, ptr %21, align 8, !tbaa !55
  %22 = getelementptr inbounds nuw i8, ptr %16, i64 152
  store ptr %1, ptr %22, align 8, !tbaa !81
  %23 = getelementptr inbounds nuw i8, ptr %16, i64 56
  store i64 %6, ptr %23, align 8, !tbaa !39
  %24 = getelementptr inbounds nuw i8, ptr %16, i64 64
  store i64 %7, ptr %24, align 8, !tbaa !39
  %25 = getelementptr inbounds nuw i8, ptr %16, i64 72
  store i64 %8, ptr %25, align 8, !tbaa !39
  call void @llvm.lifetime.end.p0(i64 32, ptr nonnull %11) #42
  ret ptr %16
}